; ModuleID = '39/1735.c'
source_filename = "39/1735.c"
target datalayout = "e-m:e-p270:32:32-p271:32:32-p272:64:64-i64:64-f80:128-n8:16:32:64-S128"
target triple = "x86_64-pc-linux-gnu"

%struct.stu = type { [20 x i8], i32, i32, [1 x i8], [1 x i8], i32 }

@.str = private unnamed_addr constant [3 x i8] c"%d\00", align 1
@.str.1 = private unnamed_addr constant [3 x i8] c"%s\00", align 1
@.str.2 = private unnamed_addr constant [4 x i8] c"%s\0A\00", align 1
@.str.3 = private unnamed_addr constant [4 x i8] c"%d\0A\00", align 1

; Function Attrs: noinline nounwind uwtable
define dso_local i32 @main(i32 %0, i8** %1) #0 {
  %3 = alloca i32, align 4
  %4 = alloca i32, align 4
  %5 = alloca i8**, align 8
  %6 = alloca [100 x %struct.stu], align 16
  %7 = alloca i32, align 4
  %8 = alloca i32, align 4
  %9 = alloca i32, align 4
  %10 = alloca i32, align 4
  %11 = alloca i32, align 4
  %12 = alloca i32, align 4
  store i32 0, i32* %3, align 4
  store i32 %0, i32* %4, align 4
  store i8** %1, i8*** %5, align 8
  store i32 0, i32* %10, align 4
  store i32 0, i32* %11, align 4
  store i32 0, i32* %12, align 4
  %13 = call i32 (i8*, ...) @__isoc99_scanf(i8* getelementptr inbounds ([3 x i8], [3 x i8]* @.str, i64 0, i64 0), i32* %7)
  store i32 0, i32* %8, align 4
  br label %14

14:                                               ; preds = %144, %2
  %15 = load i32, i32* %8, align 4
  %16 = load i32, i32* %7, align 4
  %17 = icmp slt i32 %15, %16
  br i1 %17, label %18, label %147

18:                                               ; preds = %14
  %19 = load i32, i32* %8, align 4
  %20 = sext i32 %19 to i64
  %21 = getelementptr inbounds [100 x %struct.stu], [100 x %struct.stu]* %6, i64 0, i64 %20
  %22 = getelementptr inbounds %struct.stu, %struct.stu* %21, i32 0, i32 0
  %23 = getelementptr inbounds [20 x i8], [20 x i8]* %22, i64 0, i64 0
  %24 = call i32 (i8*, ...) @__isoc99_scanf(i8* getelementptr inbounds ([3 x i8], [3 x i8]* @.str.1, i64 0, i64 0), i8* %23)
  %25 = load i32, i32* %8, align 4
  %26 = sext i32 %25 to i64
  %27 = getelementptr inbounds [100 x %struct.stu], [100 x %struct.stu]* %6, i64 0, i64 %26
  %28 = getelementptr inbounds %struct.stu, %struct.stu* %27, i32 0, i32 1
  %29 = call i32 (i8*, ...) @__isoc99_scanf(i8* getelementptr inbounds ([3 x i8], [3 x i8]* @.str, i64 0, i64 0), i32* %28)
  %30 = load i32, i32* %8, align 4
  %31 = sext i32 %30 to i64
  %32 = getelementptr inbounds [100 x %struct.stu], [100 x %struct.stu]* %6, i64 0, i64 %31
  %33 = getelementptr inbounds %struct.stu, %struct.stu* %32, i32 0, i32 2
  %34 = call i32 (i8*, ...) @__isoc99_scanf(i8* getelementptr inbounds ([3 x i8], [3 x i8]* @.str, i64 0, i64 0), i32* %33)
  %35 = load i32, i32* %8, align 4
  %36 = sext i32 %35 to i64
  %37 = getelementptr inbounds [100 x %struct.stu], [100 x %struct.stu]* %6, i64 0, i64 %36
  %38 = getelementptr inbounds %struct.stu, %struct.stu* %37, i32 0, i32 3
  %39 = getelementptr inbounds [1 x i8], [1 x i8]* %38, i64 0, i64 0
  %40 = call i32 (i8*, ...) @__isoc99_scanf(i8* getelementptr inbounds ([3 x i8], [3 x i8]* @.str.1, i64 0, i64 0), i8* %39)
  %41 = load i32, i32* %8, align 4
  %42 = sext i32 %41 to i64
  %43 = getelementptr inbounds [100 x %struct.stu], [100 x %struct.stu]* %6, i64 0, i64 %42
  %44 = getelementptr inbounds %struct.stu, %struct.stu* %43, i32 0, i32 4
  %45 = getelementptr inbounds [1 x i8], [1 x i8]* %44, i64 0, i64 0
  %46 = call i32 (i8*, ...) @__isoc99_scanf(i8* getelementptr inbounds ([3 x i8], [3 x i8]* @.str.1, i64 0, i64 0), i8* %45)
  %47 = load i32, i32* %8, align 4
  %48 = sext i32 %47 to i64
  %49 = getelementptr inbounds [100 x %struct.stu], [100 x %struct.stu]* %6, i64 0, i64 %48
  %50 = getelementptr inbounds %struct.stu, %struct.stu* %49, i32 0, i32 5
  %51 = call i32 (i8*, ...) @__isoc99_scanf(i8* getelementptr inbounds ([3 x i8], [3 x i8]* @.str, i64 0, i64 0), i32* %50)
  %52 = load i32, i32* %8, align 4
  %53 = sext i32 %52 to i64
  %54 = getelementptr inbounds [100 x %struct.stu], [100 x %struct.stu]* %6, i64 0, i64 %53
  %55 = getelementptr inbounds %struct.stu, %struct.stu* %54, i32 0, i32 1
  %56 = load i32, i32* %55, align 4
  %57 = icmp sgt i32 %56, 80
  br i1 %57, label %58, label %68

58:                                               ; preds = %18
  %59 = load i32, i32* %8, align 4
  %60 = sext i32 %59 to i64
  %61 = getelementptr inbounds [100 x %struct.stu], [100 x %struct.stu]* %6, i64 0, i64 %60
  %62 = getelementptr inbounds %struct.stu, %struct.stu* %61, i32 0, i32 5
  %63 = load i32, i32* %62, align 4
  %64 = icmp sge i32 %63, 1
  br i1 %64, label %65, label %68

65:                                               ; preds = %58
  %66 = load i32, i32* %10, align 4
  %67 = add nsw i32 %66, 8000
  store i32 %67, i32* %10, align 4
  br label %68

68:                                               ; preds = %65, %58, %18
  %69 = load i32, i32* %8, align 4
  %70 = sext i32 %69 to i64
  %71 = getelementptr inbounds [100 x %struct.stu], [100 x %struct.stu]* %6, i64 0, i64 %70
  %72 = getelementptr inbounds %struct.stu, %struct.stu* %71, i32 0, i32 1
  %73 = load i32, i32* %72, align 4
  %74 = icmp sgt i32 %73, 85
  br i1 %74, label %75, label %85

75:                                               ; preds = %68
  %76 = load i32, i32* %8, align 4
  %77 = sext i32 %76 to i64
  %78 = getelementptr inbounds [100 x %struct.stu], [100 x %struct.stu]* %6, i64 0, i64 %77
  %79 = getelementptr inbounds %struct.stu, %struct.stu* %78, i32 0, i32 2
  %80 = load i32, i32* %79, align 4
  %81 = icmp sgt i32 %80, 80
  br i1 %81, label %82, label %85

82:                                               ; preds = %75
  %83 = load i32, i32* %10, align 4
  %84 = add nsw i32 %83, 4000
  store i32 %84, i32* %10, align 4
  br label %85

85:                                               ; preds = %82, %75, %68
  %86 = load i32, i32* %8, align 4
  %87 = sext i32 %86 to i64
  %88 = getelementptr inbounds [100 x %struct.stu], [100 x %struct.stu]* %6, i64 0, i64 %87
  %89 = getelementptr inbounds %struct.stu, %struct.stu* %88, i32 0, i32 1
  %90 = load i32, i32* %89, align 4
  %91 = icmp sgt i32 %90, 90
  br i1 %91, label %92, label %95

92:                                               ; preds = %85
  %93 = load i32, i32* %10, align 4
  %94 = add nsw i32 %93, 2000
  store i32 %94, i32* %10, align 4
  br label %95

95:                                               ; preds = %92, %85
  %96 = load i32, i32* %8, align 4
  %97 = sext i32 %96 to i64
  %98 = getelementptr inbounds [100 x %struct.stu], [100 x %struct.stu]* %6, i64 0, i64 %97
  %99 = getelementptr inbounds %struct.stu, %struct.stu* %98, i32 0, i32 1
  %100 = load i32, i32* %99, align 4
  %101 = icmp sgt i32 %100, 85
  br i1 %101, label %102, label %114

102:                                              ; preds = %95
  %103 = load i32, i32* %8, align 4
  %104 = sext i32 %103 to i64
  %105 = getelementptr inbounds [100 x %struct.stu], [100 x %struct.stu]* %6, i64 0, i64 %104
  %106 = getelementptr inbounds %struct.stu, %struct.stu* %105, i32 0, i32 4
  %107 = getelementptr inbounds [1 x i8], [1 x i8]* %106, i64 0, i64 0
  %108 = load i8, i8* %107, align 1
  %109 = sext i8 %108 to i32
  %110 = icmp eq i32 %109, 89
  br i1 %110, label %111, label %114

111:                                              ; preds = %102
  %112 = load i32, i32* %10, align 4
  %113 = add nsw i32 %112, 1000
  store i32 %113, i32* %10, align 4
  br label %114

114:                                              ; preds = %111, %102, %95
  %115 = load i32, i32* %8, align 4
  %116 = sext i32 %115 to i64
  %117 = getelementptr inbounds [100 x %struct.stu], [100 x %struct.stu]* %6, i64 0, i64 %116
  %118 = getelementptr inbounds %struct.stu, %struct.stu* %117, i32 0, i32 2
  %119 = load i32, i32* %118, align 4
  %120 = icmp sgt i32 %119, 80
  br i1 %120, label %121, label %133

121:                                              ; preds = %114
  %122 = load i32, i32* %8, align 4
  %123 = sext i32 %122 to i64
  %124 = getelementptr inbounds [100 x %struct.stu], [100 x %struct.stu]* %6, i64 0, i64 %123
  %125 = getelementptr inbounds %struct.stu, %struct.stu* %124, i32 0, i32 3
  %126 = getelementptr inbounds [1 x i8], [1 x i8]* %125, i64 0, i64 0
  %127 = load i8, i8* %126, align 4
  %128 = sext i8 %127 to i32
  %129 = icmp eq i32 %128, 89
  br i1 %129, label %130, label %133

130:                                              ; preds = %121
  %131 = load i32, i32* %10, align 4
  %132 = add nsw i32 %131, 850
  store i32 %132, i32* %10, align 4
  br label %133

133:                                              ; preds = %130, %121, %114
  %134 = load i32, i32* %10, align 4
  %135 = load i32, i32* %11, align 4
  %136 = icmp sgt i32 %134, %135
  br i1 %136, label %137, label %140

137:                                              ; preds = %133
  %138 = load i32, i32* %10, align 4
  store i32 %138, i32* %11, align 4
  %139 = load i32, i32* %8, align 4
  store i32 %139, i32* %9, align 4
  br label %140

140:                                              ; preds = %137, %133
  %141 = load i32, i32* %12, align 4
  %142 = load i32, i32* %10, align 4
  %143 = add nsw i32 %141, %142
  store i32 %143, i32* %12, align 4
  store i32 0, i32* %10, align 4
  br label %144

144:                                              ; preds = %140
  %145 = load i32, i32* %8, align 4
  %146 = add nsw i32 %145, 1
  store i32 %146, i32* %8, align 4
  br label %14

147:                                              ; preds = %14
  %148 = load i32, i32* %9, align 4
  %149 = sext i32 %148 to i64
  %150 = getelementptr inbounds [100 x %struct.stu], [100 x %struct.stu]* %6, i64 0, i64 %149
  %151 = getelementptr inbounds %struct.stu, %struct.stu* %150, i32 0, i32 0
  %152 = getelementptr inbounds [20 x i8], [20 x i8]* %151, i64 0, i64 0
  %153 = call i32 (i8*, ...) @printf(i8* getelementptr inbounds ([4 x i8], [4 x i8]* @.str.2, i64 0, i64 0), i8* %152)
  %154 = load i32, i32* %11, align 4
  %155 = call i32 (i8*, ...) @printf(i8* getelementptr inbounds ([4 x i8], [4 x i8]* @.str.3, i64 0, i64 0), i32 %154)
  %156 = load i32, i32* %12, align 4
  %157 = call i32 (i8*, ...) @printf(i8* getelementptr inbounds ([4 x i8], [4 x i8]* @.str.3, i64 0, i64 0), i32 %156)
  ret i32 0
}

declare dso_local i32 @__isoc99_scanf(i8*, ...) #1

declare dso_local i32 @printf(i8*, ...) #1


!llvm.module.flags = !{!0}
!llvm.ident = !{!1}

!0 = !{i32 1, !"wchar_size", i32 4}
!1 = !{!"clang version 10.0.0-4ubuntu1 "}
